; Function Attrs: mustprogress null_pointer_is_valid sspstrong uwtable
define void @_ZN13IOGraphDialog16copyAsCsvClickedEv(ptr noundef align 8 dereferenceable_or_null(384) %0) local_unnamed_addr #2 align 2 personality ptr @__gxx_personality_v0 {
  %2 = alloca %class.QString, align 8
  %3 = alloca %class.QTextStream, align 8
  %4 = alloca %class.QString, align 8
  call void @llvm.lifetime.start.p0(i64 24, ptr nonnull %2) #33
  call void @llvm.memset.p0.i64(ptr noundef nonnull align 8 dereferenceable(24) dereferenceable_or_null(24) %2, i8 0, i64 24, i1 false)
  call void @llvm.lifetime.start.p0(i64 16, ptr nonnull %3) #33
  invoke void @_ZN11QTextStreamC1EP7QString6QFlagsIN13QIODeviceBase12OpenModeFlagEE(ptr noundef nonnull align 8 dereferenceable_or_null(16) %3, ptr noundef nonnull %2, i32 16)
          to label %5 unwind label %19

5:                                                ; preds = %1
  invoke void @_ZNK13IOGraphDialog7makeCsvER11QTextStream(ptr noundef align 8 dereferenceable_or_null(384) %0, ptr noundef nonnull align 8 dereferenceable(16) %3)
          to label %6 unwind label %21

6:                                                ; preds = %5
  %7 = invoke noundef ptr @_ZN15QGuiApplication9clipboardEv()
          to label %8 unwind label %21

8:                                                ; preds = %6
  call void @llvm.lifetime.start.p0(i64 24, ptr nonnull %4) #33
  invoke void @_ZN11QTextStream7readAllEv(ptr dead_on_unwind nonnull writable sret(%class.QString) align 8 %4, ptr noundef nonnull align 8 dereferenceable_or_null(16) %3)
          to label %9 unwind label %23

9:                                                ; preds = %8
  invoke void @_ZN10QClipboard7setTextERK7QStringNS_4ModeE(ptr noundef align 8 dereferenceable_or_null(16) %7, ptr noundef nonnull align 8 dereferenceable(24) %4, i32 noundef 0)
          to label %10 unwind label %25

10:                                               ; preds = %9
  %11 = load ptr, ptr %4, align 8
  %.not.i.i.i = icmp eq ptr %11, null
  br i1 %.not.i.i.i, label %_ZN7QStringD2Ev.exit, label %_ZN17QArrayDataPointerIDsE5derefEv.exit.i.i

_ZN17QArrayDataPointerIDsE5derefEv.exit.i.i:      ; preds = %10
  %12 = atomicrmw sub ptr %11, i32 1 seq_cst, align 4
  %.not.i.i = icmp eq i32 %12, 1
  br i1 %.not.i.i, label %13, label %_ZN7QStringD2Ev.exit

13:                                               ; preds = %_ZN17QArrayDataPointerIDsE5derefEv.exit.i.i
  %14 = load ptr, ptr %4, align 8
  call void @_ZN10QArrayData10deallocateEPS_xx(ptr noundef %14, i64 noundef 2, i64 noundef 8) #33
  br label %_ZN7QStringD2Ev.exit

_ZN7QStringD2Ev.exit:                             ; preds = %10, %_ZN17QArrayDataPointerIDsE5derefEv.exit.i.i, %13
  call void @llvm.lifetime.end.p0(i64 24, ptr nonnull %4) #33
  call void @_ZN11QTextStreamD1Ev(ptr noundef nonnull align 8 dereferenceable_or_null(16) %3) #33
  call void @llvm.lifetime.end.p0(i64 16, ptr nonnull %3) #33
  %15 = load ptr, ptr %2, align 8
  %.not.i.i.i8 = icmp eq ptr %15, null
  br i1 %.not.i.i.i8, label %_ZN7QStringD2Ev.exit11, label %_ZN17QArrayDataPointerIDsE5derefEv.exit.i.i9

_ZN17QArrayDataPointerIDsE5derefEv.exit.i.i9:     ; preds = %_ZN7QStringD2Ev.exit
  %16 = atomicrmw sub ptr %15, i32 1 seq_cst, align 4
  %.not.i.i10 = icmp eq i32 %16, 1
  br i1 %.not.i.i10, label %17, label %_ZN7QStringD2Ev.exit11

17:                                               ; preds = %_ZN17QArrayDataPointerIDsE5derefEv.exit.i.i9
  %18 = load ptr, ptr %2, align 8
  call void @_ZN10QArrayData10deallocateEPS_xx(ptr noundef %18, i64 noundef 2, i64 noundef 8) #33
  br label %_ZN7QStringD2Ev.exit11

_ZN7QStringD2Ev.exit11:                           ; preds = %_ZN7QStringD2Ev.exit, %_ZN17QArrayDataPointerIDsE5derefEv.exit.i.i9, %17
  call void @llvm.lifetime.end.p0(i64 24, ptr nonnull %2) #33
  ret void

19:                                               ; preds = %1
  %20 = landingpad { ptr, i32 }
          cleanup
  br label %32

21:                                               ; preds = %6, %5
  %22 = landingpad { ptr, i32 }
          cleanup
  br label %31

23:                                               ; preds = %8
  %24 = landingpad { ptr, i32 }
          cleanup
  br label %_ZN7QStringD2Ev.exit15

25:                                               ; preds = %9
  %26 = landingpad { ptr, i32 }
          cleanup
  %27 = load ptr, ptr %4, align 8
  %.not.i.i.i12 = icmp eq ptr %27, null
  br i1 %.not.i.i.i12, label %_ZN7QStringD2Ev.exit15, label %_ZN17QArrayDataPointerIDsE5derefEv.exit.i.i13

_ZN17QArrayDataPointerIDsE5derefEv.exit.i.i13:    ; preds = %25
  %28 = atomicrmw sub ptr %27, i32 1 seq_cst, align 4
  %.not.i.i14 = icmp eq i32 %28, 1
  br i1 %.not.i.i14, label %29, label %_ZN7QStringD2Ev.exit15

29:                                               ; preds = %_ZN17QArrayDataPointerIDsE5derefEv.exit.i.i13
  %30 = load ptr, ptr %4, align 8
  call void @_ZN10QArrayData10deallocateEPS_xx(ptr noundef %30, i64 noundef 2, i64 noundef 8) #33
  br label %_ZN7QStringD2Ev.exit15

_ZN7QStringD2Ev.exit15:                           ; preds = %29, %_ZN17QArrayDataPointerIDsE5derefEv.exit.i.i13, %25, %23
  %.pn = phi { ptr, i32 } [ %24, %23 ], [ %26, %25 ], [ %26, %_ZN17QArrayDataPointerIDsE5derefEv.exit.i.i13 ], [ %26, %29 ]
  call void @llvm.lifetime.end.p0(i64 24, ptr nonnull %4) #33
  br label %31

31:                                               ; preds = %_ZN7QStringD2Ev.exit15, %21
  %.pn.pn = phi { ptr, i32 } [ %.pn, %_ZN7QStringD2Ev.exit15 ], [ %22, %21 ]
  call void @_ZN11QTextStreamD1Ev(ptr noundef nonnull align 8 dereferenceable_or_null(16) %3) #33
  br label %32

32:                                               ; preds = %31, %19
  %.pn.pn.pn = phi { ptr, i32 } [ %.pn.pn, %31 ], [ %20, %19 ]
  call void @llvm.lifetime.end.p0(i64 16, ptr nonnull %3) #33
  %33 = load ptr, ptr %2, align 8
  %.not.i.i.i16 = icmp eq ptr %33, null
  br i1 %.not.i.i.i16, label %_ZN7QStringD2Ev.exit19, label %_ZN17QArrayDataPointerIDsE5derefEv.exit.i.i17

_ZN17QArrayDataPointerIDsE5derefEv.exit.i.i17:    ; preds = %32
  %34 = atomicrmw sub ptr %33, i32 1 seq_cst, align 4
  %.not.i.i18 = icmp eq i32 %34, 1
  br i1 %.not.i.i18, label %35, label %_ZN7QStringD2Ev.exit19

35:                                               ; preds = %_ZN17QArrayDataPointerIDsE5derefEv.exit.i.i17
  %36 = load ptr, ptr %2, align 8
  call void @_ZN10QArrayData10deallocateEPS_xx(ptr noundef %36, i64 noundef 2, i64 noundef 8) #33
  br label %_ZN7QStringD2Ev.exit19

_ZN7QStringD2Ev.exit19:                           ; preds = %32, %_ZN17QArrayDataPointerIDsE5derefEv.exit.i.i17, %35
  call void @llvm.lifetime.end.p0(i64 24, ptr nonnull %2) #33
  resume { ptr, i32 } %.pn.pn.pn
}